#include <math.h>
#include <stdio.h>
#include <stdlib.h>
#include <string.h>

int divide(int a,int b)
{
    int i,r;
    r=1;
    for(i=b;i<a;i++)
    {
                    if(((a/i)*i)==a&&(a/i)>=i) r=r+divide(a/i,i);
    }
    return r;
}
int main()
{
    int s,p,n,j;
    scanf("%d",&n);
    for(j=0;j<n;j++)
    {
                    scanf("%d",&p);
                    s=divide(p,2);
                    printf("%d\n",s);
    }
}